; Function Attrs: null_pointer_is_valid sspstrong uwtable
define hidden i32 @samr_dissect_struct_UserInfo13(ptr noundef %0, i32 noundef %1, ptr noundef %2, ptr noundef %3, ptr noundef %4, ptr noundef %5, i32 noundef %6, i32 %7) local_unnamed_addr #0 {
  %9 = getelementptr inbounds nuw i8, ptr %4, i64 64
  %10 = load ptr, ptr %9, align 8
  %11 = getelementptr inbounds nuw i8, ptr %10, i64 96
  %12 = load i32, ptr %11, align 8
  %13 = and i32 %12, 1
  %.not = icmp eq i32 %13, 0
  %14 = getelementptr inbounds nuw i8, ptr %4, i64 25
  %15 = load i8, ptr %14, align 1, !range !6, !noundef !7
  %16 = trunc nuw i8 %15 to i1
  br i1 %.not, label %22, label %17

17:                                               ; preds = %8
  %18 = and i32 %1, 7
  %.not35 = icmp eq i32 %18, 0
  %or.cond = or i1 %.not35, %16
  br i1 %or.cond, label %27, label %19

19:                                               ; preds = %17
  %20 = and i32 %1, -8
  %21 = add i32 %20, 8
  br label %27

22:                                               ; preds = %8
  %23 = and i32 %1, 3
  %.not34 = icmp eq i32 %23, 0
  %or.cond39 = or i1 %.not34, %16
  br i1 %or.cond39, label %27, label %24

24:                                               ; preds = %22
  %25 = and i32 %1, -4
  %26 = add i32 %25, 4
  br label %27

27:                                               ; preds = %22, %24, %17, %19
  %.0 = phi i32 [ %1, %17 ], [ %21, %19 ], [ %1, %22 ], [ %26, %24 ]
  %.not36 = icmp eq ptr %3, null
  br i1 %.not36, label %32, label %28

28:                                               ; preds = %27
  %29 = tail call ptr @proto_tree_add_item(ptr noundef nonnull %3, i32 noundef %6, ptr noundef %0, i32 noundef %.0, i32 noundef -1, i32 noundef 0)
  %30 = load i32, ptr @ett_samr_samr_UserInfo13, align 4
  %31 = tail call ptr @proto_item_add_subtree(ptr noundef %29, i32 noundef %30)
  br label %32

32:                                               ; preds = %28, %27
  %.032 = phi ptr [ %29, %28 ], [ null, %27 ]
  %.031 = phi ptr [ %31, %28 ], [ null, %27 ]
  %33 = load i32, ptr @hf_samr_samr_UserInfo13_description, align 4
  %34 = tail call i32 @dissect_ndr_lsa_String(ptr noundef %0, i32 noundef %.0, ptr noundef %2, ptr noundef %.031, ptr noundef %4, ptr noundef %5, i32 noundef 0, i32 noundef %33)
  %35 = sub i32 %34, %.0
  tail call void @proto_item_set_len(ptr noundef %.032, i32 noundef %35)
  %36 = load ptr, ptr %9, align 8
  %37 = getelementptr inbounds nuw i8, ptr %36, i64 96
  %38 = load i32, ptr %37, align 8
  %39 = and i32 %38, 1
  %.not37 = icmp eq i32 %39, 0
  br i1 %.not37, label %48, label %40

40:                                               ; preds = %32
  %41 = getelementptr inbounds nuw i8, ptr %4, i64 25
  %42 = load i8, ptr %41, align 1, !range !6, !noundef !7
  %43 = trunc nuw i8 %42 to i1
  %44 = and i32 %34, 7
  %.not38 = icmp eq i32 %44, 0
  %or.cond40 = or i1 %.not38, %43
  br i1 %or.cond40, label %48, label %45

45:                                               ; preds = %40
  %46 = and i32 %34, -8
  %47 = add i32 %46, 8
  br label %48

48:                                               ; preds = %45, %40, %32
  %.1 = phi i32 [ %34, %40 ], [ %47, %45 ], [ %34, %32 ]
  ret i32 %.1
}